(dp1
S'output'
p2
S"<type 'exceptions.UnicodeDecodeError'> 'utf8' codec can't decode byte 0x89 in position 0: invalid start byte"
p3
sS'layer'
p4
S'/home/kevin/web2py/applications/kayoo/controllers/media.py'
p5
sS'code'
p6
S'# -*- coding: utf-8 -*-\n\ndef getAvatarById():\n    _id = request.vars["_id"]\n    core = Core()\n    result = core.MediaOperation("getAvatarById", {"_id": _id})\n    print \'--------Imprimiendo result-----------\'\n    print result\n    print \'--------Impreso result-----------\'\n    return response.json(result)\nresponse._vars=response._caller(getAvatarById)\n'
p7
sS'snapshot'
p8
(dp9
sS'traceback'
p10
S'Traceback (most recent call last):\n  File "/home/kevin/web2py/gluon/restricted.py", line 227, in restricted\n    exec ccode in environment\n  File "/home/kevin/web2py/applications/kayoo/controllers/media.py", line 11, in <module>\n  File "/home/kevin/web2py/gluon/globals.py", line 417, in <lambda>\n    self._caller = lambda f: f()\n  File "/home/kevin/web2py/applications/kayoo/controllers/media.py", line 10, in getAvatarById\n    return response.json(result)\n  File "/home/kevin/web2py/gluon/globals.py", line 661, in json\n    return json(data, default=default or custom_json)\n  File "/home/kevin/web2py/gluon/serializers.py", line 137, in json\n    value = json_parser.dumps(value, default=default)\n  File "/usr/lib/python2.7/json/__init__.py", line 251, in dumps\n    sort_keys=sort_keys, **kw).encode(obj)\n  File "/usr/lib/python2.7/json/encoder.py", line 201, in encode\n    return encode_basestring_ascii(o)\nUnicodeDecodeError: \'utf8\' codec can\'t decode byte 0x89 in position 0: invalid start byte\n'
p11
s.