(dp1
S'output'
p2
S"<type 'exceptions.NameError'> global name 'UpdateUserService' is not defined"
p3
sS'layer'
p4
S'/home/kevin/web2py/applications/kayoo/controllers/user.py'
p5
sS'code'
p6
S'# -*- coding: utf-8 -*-\nimport json\nfrom core.core import Core\n\n@HTTP_METHOD_CONSTRAINT("GET", request)\ndef getFirstByFieldsUser():\n    core = Core()\n    result = core.UserOperation("getFirstByFieldsUser", request.vars)\n    return response.json(result)\n\n@HTTP_METHOD_CONSTRAINT("GET", request)\n@CHECK_PARAMETERS(request.vars,{"id":"mandatory"},"getByIdUser")\ndef getByIdUser():\n    _id = request.vars["id"]\n    core = Core()\n    result = core.UserOperation("getByIdUser", {"_id":_id})\n    return response.json(result)\n\n@HTTP_METHOD_CONSTRAINT("GET", request)\ndef getCommunities():\n    core = Core()\n    result = core.UserOperation("getAllUser", {})\n    return response.json(result)\n\n@HTTP_METHOD_CONSTRAINT("DELETE", request)\n@CHECK_PARAMETERS(request.vars,{"id":"mandatory"},"deleteUser")\ndef deleteUser():\n    _id = request.vars["id"]\n    core = Core()\n    result = core.UserOperation("getByIdUser", {"_id":_id})\n    if result >= 1:\n        return "Sucess"\n    return "Failed"\n\n@HTTP_METHOD_CONSTRAINT("POST", request)\ndef newUser():\n    core = Core()\n    result = core.UserOperation("createUser", request.vars)\n    return result\n\n@HTTP_METHOD_CONSTRAINT("POST", request)\n@CHECK_PARAMETERS(request.vars,{"id":"mandatory", "new_values":"mandatory"},"updateUser")\ndef updateUser():\n    _id = request.vars["id"]\n    _new_values = request.vars["new_values"]\n    core = Core()\n    result = core.UserOperation("updateUser", {"_id":_id, "new_values":_new_values})\n    return response.json(result)\n\nresponse._vars=response._caller(getCommunities)\n'
p7
sS'snapshot'
p8
(dp9
sS'traceback'
p10
S'Traceback (most recent call last):\n  File "/home/kevin/web2py/gluon/restricted.py", line 227, in restricted\n    exec ccode in environment\n  File "/home/kevin/web2py/applications/kayoo/controllers/user.py", line 50, in <module>\n  File "/home/kevin/web2py/gluon/globals.py", line 417, in <lambda>\n    self._caller = lambda f: f()\n  File "applications/kayoo/modules/http/http_method_constraint.py", line 11, in wrapped_func\n  File "/home/kevin/web2py/applications/kayoo/controllers/user.py", line 22, in getCommunities\n    result = core.UserOperation("getAllUser", {})\n  File "applications/kayoo/modules/core/core.py", line 6, in UserOperation\n    return self.FactoryOperation(serviceName, parameters)\n  File "applications/kayoo/modules/core/core.py", line 12, in FactoryOperation\n    return ServiceFactory(serviceName, self, parameters).run()\n  File "applications/kayoo/modules/services/service_factory.py", line 15, in __new__\n    "updateUser"\t\t\t\t: UpdateUserService,\nNameError: global name \'UpdateUserService\' is not defined\n'
p11
s.