(dp1
S'output'
p2
S"<class 'applications.kayoo.modules.http.http_exception.HttpException'> 405 METHOD NOT ALLOWED"
p3
sS'layer'
p4
S'/home/kevin/web2py/applications/kayoo/controllers/search.py'
p5
sS'code'
p6
S'# -*- coding: utf-8 -*-\n\n@HTTP_METHOD_CONSTRAINT_DECORATOR.isAllowed(["POST", "OPTIONS"], request)\n@HTTP_METHOD_OPTION_CHECKER_DECORATOR.isOption(request, response)\n@CROSS_DOMAIN_DECORATOR.changesHeaders(response)\ndef search():\n   return response.json([{"search":"Tomate"},\n     {"search": "Arroz"},\n     {"search": "Berenjena"}])\nresponse._vars=response._caller(search)\n'
p7
sS'snapshot'
p8
(dp9
sS'traceback'
p10
S'Traceback (most recent call last):\n  File "/home/kevin/web2py/gluon/restricted.py", line 227, in restricted\n    exec ccode in environment\n  File "/home/kevin/web2py/applications/kayoo/controllers/search.py", line 10, in <module>\n  File "/home/kevin/web2py/gluon/globals.py", line 417, in <lambda>\n    self._caller = lambda f: f()\n  File "applications/kayoo/modules/decorators/http_method_constraint_decorator.py", line 12, in decorator\n    raise HttpException(405)\nHttpException: 405 METHOD NOT ALLOWED\n'
p11
s.