(dp1
S'output'
p2
S"<type 'exceptions.UnicodeDecodeError'> 'utf8' codec can't decode byte 0x86 in position 8: invalid start byte"
p3
sS'layer'
p4
S'/home/kevin/web2py/applications/kayoo/controllers/user.py'
p5
sS'code'
p6
S'# -*- coding: utf-8 -*-\nimport json\nfrom core.core import Core\n\n@HTTP_METHOD_CONSTRAINT("GET", request)\ndef getFirstByFieldsUser():\n    core = Core()\n    result = core.UserOperation("getFirstByFieldsUser", request.vars)\n    return response.json(result)\n\n@HTTP_METHOD_CONSTRAINT("GET", request)\n@CHECK_PARAMETERS(request.vars,{"id":"mandatory"},"getByIdUser")\ndef getByIdUser():\n    _id = request.vars["id"]\n    core = Core()\n    result = core.UserOperation("getByIdUser", {"_id":_id})\n    return response.json(result)\n\n@HTTP_METHOD_CONSTRAINT("GET", request)\ndef getUsers():\n    core = Core()\n    result = core.UserOperation("getAllUser", {})\n    return response.json(result)\n\n@HTTP_METHOD_CONSTRAINT("DELETE", request)\n@CHECK_PARAMETERS(request.vars,{"id":"mandatory"},"deleteUser")\ndef deleteUser():\n    _id = request.vars["id"]\n    core = Core()\n    result = core.UserOperation("deleteUser", {"_id":_id})\n    if result >= 1:\n        return "Success"\n    return "Failed"\n\n@HTTP_METHOD_CONSTRAINT("POST", request)\ndef newUser():\n    core = Core()\n    result = core.UserOperation("createUser", request.vars)\n    return result\n\n@HTTP_METHOD_CONSTRAINT("POST", request)\n@CHECK_PARAMETERS(request.vars,{"id":"mandatory", "new_values":"mandatory"},"updateUser")\ndef updateUser():\n    _id = request.vars["id"]\n    _new_values = request.vars["new_values"]\n    core = Core()\n    result = core.UserOperation("updateUser", {"_id":_id, "new_values":_new_values})\n    return response.json(result)\n\nresponse._vars=response._caller(getByIdUser)\n'
p7
sS'snapshot'
p8
(dp9
sS'traceback'
p10
S'Traceback (most recent call last):\n  File "/home/kevin/web2py/gluon/restricted.py", line 227, in restricted\n    exec ccode in environment\n  File "/home/kevin/web2py/applications/kayoo/controllers/user.py", line 50, in <module>\n  File "/home/kevin/web2py/gluon/globals.py", line 417, in <lambda>\n    self._caller = lambda f: f()\n  File "applications/kayoo/modules/http/http_method_constraint.py", line 11, in wrapped_func\n  File "applications/kayoo/modules/decorators/check_parameters.py", line 50, in wrapped_func\n    return function()\n  File "/home/kevin/web2py/applications/kayoo/controllers/user.py", line 17, in getByIdUser\n    return response.json(result)\n  File "/home/kevin/web2py/gluon/globals.py", line 661, in json\n    return json(data, default=default or custom_json)\n  File "/home/kevin/web2py/gluon/serializers.py", line 137, in json\n    value = json_parser.dumps(value, default=default)\n  File "/usr/lib/python2.7/json/__init__.py", line 251, in dumps\n    sort_keys=sort_keys, **kw).encode(obj)\n  File "/usr/lib/python2.7/json/encoder.py", line 207, in encode\n    chunks = self.iterencode(o, _one_shot=True)\n  File "/usr/lib/python2.7/json/encoder.py", line 270, in iterencode\n    return _iterencode(o, 0)\nUnicodeDecodeError: \'utf8\' codec can\'t decode byte 0x86 in position 8: invalid start byte\n'
p11
s.