(dp1
S'output'
p2
S"<class 'applications.kayoo.modules.http.http_exception.HttpException'> 405 METHOD NOT ALLOWED"
p3
sS'layer'
p4
S'/home/kevin/web2py/applications/kayoo/controllers/post.py'
p5
sS'code'
p6
S'# -*- coding: utf-8 -*-\nimport json\nfrom core.core import Core\n\ndef header(self, response):\n    response.headers[\'Access-Control-Allow-Origin\'] = \'*\'\n    response.headers[\'Access-Control-Allow-Credentials\'] = True\n    response.headers[\'Access-Control-Allow-Headers\']= "origin, content-type, accept"\n    response.headers[\'Access-Control-Allow-Methods\']= "GET, POST, OPTIONS, DELETE"\n    return response\n\n@HTTP_METHOD_CONSTRAINT("GET", request)\ndef getFirstByFieldsPost():\n    header(response)\n    core = Core()\n    result = core.PostOperation("getFirstByFieldsPost", request.vars)\n    return response.json(result)\n\n@HTTP_METHOD_CONSTRAINT("GET", request)\n@CHECK_PARAMETERS(request.vars,{"id":"mandatory"},"getByIdPost")\ndef getByIdPost():\n    _id = request.vars["id"]\n    header(response)\n    core = Core()\n    result = core.PostOperation("getByIdPost", {"_id":_id})\n    return response.json(result)\n\n@HTTP_METHOD_CONSTRAINT("GET", request)\ndef getPosts():\n    core = Core()\n    header(response)\n    result = core.PostOperation("getAllPost", {})\n    return response.json(result)\n\n@HTTP_METHOD_CONSTRAINT("DELETE", request)\n@CHECK_PARAMETERS(request.vars,{"id":"mandatory"},"deletePost")\ndef deletePost():\n    _id = request.vars["id"]\n    core = Core()\n    header(response)\n    result = core.PostOperation("deletePost", {"_id":_id})\n    if result >= 1:\n        return "Success"\n    return "Failed"\n\n@HTTP_METHOD_CONSTRAINT(["POST", "OPTIONS"], request)\ndef newPost():\n    print request.env.request_method\n    core = Core()\n    #response = header(response)\n    response.headers[\'Access-Control-Allow-Origin\'] = \'*\'\n    response.headers[\'Access-Control-Allow-Credentials\'] = True\n    response.headers[\'Access-Control-Allow-Headers\']= "origin, content-type, accept"\n    response.headers[\'Access-Control-Allow-Methods\']= "GET, POST, OPTIONS, DELETE"\n    result = core.PostOperation("createPost", request.vars)\n    print result\n    return result\n\n@HTTP_METHOD_CONSTRAINT("POST", request)\n@CHECK_PARAMETERS(request.vars,{"id":"mandatory", "new_values":"mandatory"},"updatePost")\ndef updatePost():\n    _id = request.vars["id"]\n    _new_values = request.vars["new_values"]\n    core = Core()\n    header(response)\n    result = core.PostOperation("updatePost", {"_id":_id, "new_values":_new_values})\n    return response.json(result)\n\nresponse._vars=response._caller(newPost)\n'
p7
sS'snapshot'
p8
(dp9
sS'traceback'
p10
S'Traceback (most recent call last):\n  File "/home/kevin/web2py/gluon/restricted.py", line 227, in restricted\n    exec ccode in environment\n  File "/home/kevin/web2py/applications/kayoo/controllers/post.py", line 69, in <module>\n  File "/home/kevin/web2py/gluon/globals.py", line 417, in <lambda>\n    self._caller = lambda f: f()\n  File "applications/kayoo/modules/http/http_method_constraint.py", line 10, in wrapped_func\nHttpException: 405 METHOD NOT ALLOWED\n'
p11
s.